target datalayout = "e-m:e-p270:32:32-p271:32:32-p272:64:64-i64:64-i128:128-f80:128-n8:16:32:64-S128"
target triple = "x86_64-pc-linux-gnu"

; Function Attrs: inlinehint nounwind uwtable
define internal ptr @ossl_check_X509_EXTENSION_freefunc_type(ptr noundef %0) #4 {
  %2 = alloca ptr, align 8
  store ptr %0, ptr %2, align 8, !tbaa !12
  %3 = load ptr, ptr %2, align 8, !tbaa !12
  ret ptr %3
}

; Function Attrs: inlinehint nounwind uwtable
define internal ptr @ossl_check_X509_EXTENSION_sk_type(ptr noundef %0) #4 {
  %2 = alloca ptr, align 8
  store ptr %0, ptr %2, align 8, !tbaa !69
  %3 = load ptr, ptr %2, align 8, !tbaa !69
  ret ptr %3
}

; Function Attrs: inlinehint nounwind uwtable
define internal ptr @ossl_check_GENERAL_NAME_freefunc_type(ptr noundef %0) #4 {
  %2 = alloca ptr, align 8
  store ptr %0, ptr %2, align 8, !tbaa !12
  %3 = load ptr, ptr %2, align 8, !tbaa !12
  ret ptr %3
}

; Function Attrs: inlinehint nounwind uwtable
define internal ptr @ossl_check_GENERAL_NAME_sk_type(ptr noundef %0) #4 {
  %2 = alloca ptr, align 8
  store ptr %0, ptr %2, align 8, !tbaa !40
  %3 = load ptr, ptr %2, align 8, !tbaa !40
  ret ptr %3
}

; Function Attrs: nounwind uwtable
define ptr @X509_REQ_get1_email(ptr noundef %0) #0 {
  %2 = alloca ptr, align 8
  %3 = alloca ptr, align 8
  %4 = alloca ptr, align 8
  %5 = alloca ptr, align 8
  store ptr %0, ptr %2, align 8, !tbaa !67
  call void @llvm.lifetime.start.p0(i64 8, ptr %3) #8
  call void @llvm.lifetime.start.p0(i64 8, ptr %4) #8
  call void @llvm.lifetime.start.p0(i64 8, ptr %5) #8
  %6 = load ptr, ptr %2, align 8, !tbaa !67
  %7 = call ptr @X509_REQ_get_extensions(ptr noundef %6)
  store ptr %7, ptr %4, align 8, !tbaa !69
  %8 = load ptr, ptr %4, align 8, !tbaa !69
  %9 = call ptr @X509V3_get_d2i(ptr noundef %8, i32 noundef 85, ptr noundef null, ptr noundef null)
  store ptr %9, ptr %3, align 8, !tbaa !40
  %10 = load ptr, ptr %2, align 8, !tbaa !67
  %11 = call ptr @X509_REQ_get_subject_name(ptr noundef %10)
  %12 = load ptr, ptr %3, align 8, !tbaa !40
  %13 = call ptr @get_email(ptr noundef %11, ptr noundef %12)
  store ptr %13, ptr %5, align 8, !tbaa !42
  %14 = load ptr, ptr %3, align 8, !tbaa !40
  %15 = call ptr @ossl_check_GENERAL_NAME_sk_type(ptr noundef %14)
  %16 = call ptr @ossl_check_GENERAL_NAME_freefunc_type(ptr noundef @GENERAL_NAME_free)
  call void @OPENSSL_sk_pop_free(ptr noundef %15, ptr noundef %16)
  %17 = load ptr, ptr %4, align 8, !tbaa !69
  %18 = call ptr @ossl_check_X509_EXTENSION_sk_type(ptr noundef %17)
  %19 = call ptr @ossl_check_X509_EXTENSION_freefunc_type(ptr noundef @X509_EXTENSION_free)
  call void @OPENSSL_sk_pop_free(ptr noundef %18, ptr noundef %19)
  %20 = load ptr, ptr %5, align 8, !tbaa !42
  call void @llvm.lifetime.end.p0(i64 8, ptr %5) #8
  call void @llvm.lifetime.end.p0(i64 8, ptr %4) #8
  call void @llvm.lifetime.end.p0(i64 8, ptr %3) #8
  ret ptr %20
}