; Function Attrs: nounwind uwtable
define ptr @X509_REQ_get1_email(ptr noundef %0) local_unnamed_addr #0 {
  %2 = tail call ptr @X509_REQ_get_extensions(ptr noundef %0) #12
  %3 = tail call ptr @X509V3_get_d2i(ptr noundef %2, i32 noundef 85, ptr noundef null, ptr noundef null) #12
  %4 = tail call ptr @X509_REQ_get_subject_name(ptr noundef %0) #12
  %5 = tail call fastcc ptr @get_email(ptr noundef %4, ptr noundef %3)
  tail call void @OPENSSL_sk_pop_free(ptr noundef %3, ptr noundef nonnull @GENERAL_NAME_free) #12
  tail call void @OPENSSL_sk_pop_free(ptr noundef %2, ptr noundef nonnull @X509_EXTENSION_free) #12
  ret ptr %5
}